target datalayout = "e-m:e-p270:32:32-p271:32:32-p272:64:64-i64:64-i128:128-f80:128-n8:16:32:64-S128"
target triple = "x86_64-pc-linux-gnu"

%struct.expert_field = type { i32, i32 }

@hf_pfcp_subseq_volume_threshold_tovol = internal global i32 0, align 4
@hf_pfcp_subseq_volume_threshold_ulvol = internal global i32 0, align 4
@hf_pfcp_subseq_volume_threshold_dlvol = internal global i32 0, align 4
@ei_pfcp_ie_data_not_decoded = internal global %struct.expert_field zeroinitializer, align 4
@dissect_pfcp_subseq_volume_threshold.pfcp_subseq_volume_threshold_flags = internal constant [5 x ptr] [ptr @hf_pfcp_spare_b7_b3, ptr @hf_pfcp_subseq_volume_threshold_b2_dlvol, ptr @hf_pfcp_subseq_volume_threshold_b1_ulvol, ptr @hf_pfcp_subseq_volume_threshold_b0_tovol, ptr null], align 16

; Function Attrs: null_pointer_is_valid sspstrong uwtable
define internal void @dissect_pfcp_subseq_volume_threshold(ptr noundef %0, ptr noundef %1, ptr noundef %2, ptr noundef %3, i16 noundef zeroext %4, i8 noundef zeroext %5, ptr noundef %6) #0 {
  %8 = alloca ptr, align 8
  %9 = alloca ptr, align 8
  %10 = alloca ptr, align 8
  %11 = alloca ptr, align 8
  %12 = alloca i16, align 2
  %13 = alloca i8, align 1
  %14 = alloca ptr, align 8
  %15 = alloca i32, align 4
  %16 = alloca i64, align 8
  store ptr %0, ptr %8, align 8
  store ptr %1, ptr %9, align 8
  store ptr %2, ptr %10, align 8
  store ptr %3, ptr %11, align 8
  store i16 %4, ptr %12, align 2
  store i8 %5, ptr %13, align 1
  store ptr %6, ptr %14, align 8
  call void @llvm.lifetime.start.p0(i64 4, ptr %15) #13
  store i32 0, ptr %15, align 4
  call void @llvm.lifetime.start.p0(i64 8, ptr %16) #13
  %17 = load ptr, ptr %10, align 8
  %18 = load ptr, ptr %8, align 8
  %19 = load i32, ptr %15, align 4
  call void @proto_tree_add_bitmask_list_ret_uint64(ptr noundef %17, ptr noundef %18, i32 noundef %19, i32 noundef 1, ptr noundef @dissect_pfcp_subseq_volume_threshold.pfcp_subseq_volume_threshold_flags, i32 noundef 0, ptr noundef %16)
  %20 = load i32, ptr %15, align 4
  %21 = add i32 %20, 1
  store i32 %21, ptr %15, align 4
  %22 = load i64, ptr %16, align 8
  %23 = and i64 %22, 1
  %24 = icmp eq i64 %23, 1
  br i1 %24, label %25, label %33

25:                                               ; preds = %7
  %26 = load ptr, ptr %10, align 8
  %27 = load i32, ptr @hf_pfcp_subseq_volume_threshold_tovol, align 4
  %28 = load ptr, ptr %8, align 8
  %29 = load i32, ptr %15, align 4
  %30 = call ptr @proto_tree_add_item(ptr noundef %26, i32 noundef %27, ptr noundef %28, i32 noundef %29, i32 noundef 8, i32 noundef 0)
  %31 = load i32, ptr %15, align 4
  %32 = add i32 %31, 8
  store i32 %32, ptr %15, align 4
  br label %33

33:                                               ; preds = %25, %7
  %34 = load i64, ptr %16, align 8
  %35 = and i64 %34, 2
  %36 = icmp eq i64 %35, 2
  br i1 %36, label %37, label %45

37:                                               ; preds = %33
  %38 = load ptr, ptr %10, align 8
  %39 = load i32, ptr @hf_pfcp_subseq_volume_threshold_ulvol, align 4
  %40 = load ptr, ptr %8, align 8
  %41 = load i32, ptr %15, align 4
  %42 = call ptr @proto_tree_add_item(ptr noundef %38, i32 noundef %39, ptr noundef %40, i32 noundef %41, i32 noundef 8, i32 noundef 0)
  %43 = load i32, ptr %15, align 4
  %44 = add i32 %43, 8
  store i32 %44, ptr %15, align 4
  br label %45

45:                                               ; preds = %37, %33
  %46 = load i64, ptr %16, align 8
  %47 = and i64 %46, 4
  %48 = icmp eq i64 %47, 4
  br i1 %48, label %49, label %57

49:                                               ; preds = %45
  %50 = load ptr, ptr %10, align 8
  %51 = load i32, ptr @hf_pfcp_subseq_volume_threshold_dlvol, align 4
  %52 = load ptr, ptr %8, align 8
  %53 = load i32, ptr %15, align 4
  %54 = call ptr @proto_tree_add_item(ptr noundef %50, i32 noundef %51, ptr noundef %52, i32 noundef %53, i32 noundef 8, i32 noundef 0)
  %55 = load i32, ptr %15, align 4
  %56 = add i32 %55, 8
  store i32 %56, ptr %15, align 4
  br label %57

57:                                               ; preds = %49, %45
  %58 = load i32, ptr %15, align 4
  %59 = load i16, ptr %12, align 2
  %60 = zext i16 %59 to i32
  %61 = icmp slt i32 %58, %60
  br i1 %61, label %62, label %68

62:                                               ; preds = %57
  %63 = load ptr, ptr %10, align 8
  %64 = load ptr, ptr %9, align 8
  %65 = load ptr, ptr %8, align 8
  %66 = load i32, ptr %15, align 4
  %67 = call ptr @proto_tree_add_expert(ptr noundef %63, ptr noundef %64, ptr noundef @ei_pfcp_ie_data_not_decoded, ptr noundef %65, i32 noundef %66, i32 noundef -1)
  br label %68

68:                                               ; preds = %62, %57
  call void @llvm.lifetime.end.p0(i64 8, ptr %16) #13
  call void @llvm.lifetime.end.p0(i64 4, ptr %15) #13
  ret void
}